target datalayout = "e-m:e-p270:32:32-p271:32:32-p272:64:64-i64:64-i128:128-f80:128-n8:16:32:64-S128"
target triple = "x86_64-pc-linux-gnu"

%"class.llvm::MachineOperand" = type { i32, %union.anon, ptr, %"union.llvm::MachineOperand::ContentsUnion" }
%union.anon = type { i32 }
%"union.llvm::MachineOperand::ContentsUnion" = type { %"class.llvm::ArrayRef.70" }
%"class.llvm::ArrayRef.70" = type { ptr, i64 }
%"class.llvm::Register" = type { i32 }
%"class.llvm::MachineInstr" = type <{ %"class.llvm::ilist_node_with_parent", ptr, ptr, ptr, [3 x i8], %"class.llvm::ArrayRecycler<llvm::MachineOperand>::Capacity", i32, %"class.llvm::PointerSumType", %"class.llvm::DebugLoc", i32, i16, [2 x i8] }>
%"class.llvm::ilist_node_with_parent" = type { %"class.llvm::ilist_node" }
%"class.llvm::ilist_node" = type { %"class.llvm::ilist_node_impl" }
%"class.llvm::ilist_node_impl" = type { %"class.llvm::ilist_node_base" }
%"class.llvm::ilist_node_base" = type { %"class.llvm::ilist_detail::node_base_prevnext" }
%"class.llvm::ilist_detail::node_base_prevnext" = type { %"class.llvm::PointerIntPair", ptr }
%"class.llvm::PointerIntPair" = type { %"struct.llvm::detail::PunnedPointer" }
%"struct.llvm::detail::PunnedPointer" = type { [8 x i8] }
%"class.llvm::ArrayRecycler<llvm::MachineOperand>::Capacity" = type { i8 }
%"class.llvm::PointerSumType" = type { %"union.llvm::PointerSumType<llvm::MachineInstr::ExtraInfoInlineKinds, llvm::PointerSumTypeMember<0, llvm::MachineMemOperand *>, llvm::PointerSumTypeMember<1, llvm::MCSymbol *>, llvm::PointerSumTypeMember<2, llvm::MCSymbol *>, llvm::PointerSumTypeMember<3, llvm::MachineInstr::ExtraInfo *>>::StorageT" }
%"union.llvm::PointerSumType<llvm::MachineInstr::ExtraInfoInlineKinds, llvm::PointerSumTypeMember<0, llvm::MachineMemOperand *>, llvm::PointerSumTypeMember<1, llvm::MCSymbol *>, llvm::PointerSumTypeMember<2, llvm::MCSymbol *>, llvm::PointerSumTypeMember<3, llvm::MachineInstr::ExtraInfo *>>::StorageT" = type { i64 }
%"class.llvm::DebugLoc" = type { %"class.llvm::TypedTrackingMDRef" }
%"class.llvm::TypedTrackingMDRef" = type { %"class.llvm::TrackingMDRef" }
%"class.llvm::TrackingMDRef" = type { ptr }
%"class.llvm::iterator_range.173" = type { ptr, ptr }
%"class.llvm::MCRegister" = type { i32 }

; Function Attrs: mustprogress nounwind uwtable
define linkonce_odr hidden void @_ZN4llvm14iterator_rangeIPNS_14MachineOperandEEC2ES2_S2_(ptr noundef nonnull align 8 dereferenceable(16) %0, ptr noundef %1, ptr noundef %2) unnamed_addr #0 comdat align 2 {
  %4 = alloca ptr, align 8
  %5 = alloca ptr, align 8
  %6 = alloca ptr, align 8
  store ptr %0, ptr %4, align 8
  store ptr %1, ptr %5, align 8
  store ptr %2, ptr %6, align 8
  %7 = load ptr, ptr %4, align 8
  %8 = getelementptr inbounds nuw %"class.llvm::iterator_range.173", ptr %7, i32 0, i32 0
  %9 = load ptr, ptr %5, align 8
  store ptr %9, ptr %8, align 8
  %10 = getelementptr inbounds nuw %"class.llvm::iterator_range.173", ptr %7, i32 0, i32 1
  %11 = load ptr, ptr %6, align 8
  store ptr %11, ptr %10, align 8
  ret void
}

; Function Attrs: mustprogress nounwind uwtable
define linkonce_odr hidden noundef zeroext i1 @_ZN4llvm10MCRegister18isPhysicalRegisterEj(i32 noundef %0) #0 comdat align 2 {
  %2 = alloca i32, align 4
  store i32 %0, ptr %2, align 4
  %3 = load i32, ptr %2, align 4
  %4 = icmp ule i32 1, %3
  br i1 %4, label %5, label %8

5:                                                ; preds = %1
  %6 = load i32, ptr %2, align 4
  %7 = icmp ult i32 %6, 1073741824
  br label %8

8:                                                ; preds = %5, %1
  %9 = phi i1 [ false, %1 ], [ %7, %5 ]
  ret i1 %9
}

; Function Attrs: mustprogress nounwind uwtable
define linkonce_odr hidden void @_ZN4llvm8RegisterC2Ej(ptr noundef nonnull align 4 dereferenceable(4) %0, i32 noundef %1) unnamed_addr #0 comdat align 2 {
  %3 = alloca ptr, align 8
  %4 = alloca i32, align 4
  store ptr %0, ptr %3, align 8
  store i32 %1, ptr %4, align 4
  %5 = load ptr, ptr %3, align 8
  %6 = getelementptr inbounds nuw %"class.llvm::Register", ptr %5, i32 0, i32 0
  %7 = load i32, ptr %4, align 4
  store i32 %7, ptr %6, align 4
  ret void
}

; Function Attrs: mustprogress nounwind uwtable
define linkonce_odr { ptr, ptr } @_ZN4llvm10make_rangeIPNS_14MachineOperandEEENS_14iterator_rangeIT_EES4_S4_(ptr noundef %0, ptr noundef %1) #0 comdat {
  %3 = alloca %"class.llvm::iterator_range.173", align 8
  %4 = alloca ptr, align 8
  %5 = alloca ptr, align 8
  store ptr %0, ptr %4, align 8
  store ptr %1, ptr %5, align 8
  %6 = load ptr, ptr %4, align 8
  %7 = load ptr, ptr %5, align 8
  call void @_ZN4llvm14iterator_rangeIPNS_14MachineOperandEEC2ES2_S2_(ptr noundef nonnull align 8 dereferenceable(16) %3, ptr noundef %6, ptr noundef %7)
  %8 = load { ptr, ptr }, ptr %3, align 8
  ret { ptr, ptr } %8
}

; Function Attrs: mustprogress nounwind uwtable
define linkonce_odr hidden noundef ptr @_ZN4llvm12MachineInstr12operands_endEv(ptr noundef nonnull align 8 dereferenceable(70) %0) #0 comdat align 2 {
  %2 = alloca ptr, align 8
  store ptr %0, ptr %2, align 8
  %3 = load ptr, ptr %2, align 8
  %4 = getelementptr inbounds nuw %"class.llvm::MachineInstr", ptr %3, i32 0, i32 3
  %5 = load ptr, ptr %4, align 8
  %6 = getelementptr inbounds nuw %"class.llvm::MachineInstr", ptr %3, i32 0, i32 4
  %7 = load i24, ptr %6, align 8
  %8 = zext i24 %7 to i32
  %9 = sext i32 %8 to i64
  %10 = getelementptr inbounds %"class.llvm::MachineOperand", ptr %5, i64 %9
  ret ptr %10
}

; Function Attrs: mustprogress nounwind uwtable
define linkonce_odr hidden noundef ptr @_ZN4llvm12MachineInstr14operands_beginEv(ptr noundef nonnull align 8 dereferenceable(70) %0) #0 comdat align 2 {
  %2 = alloca ptr, align 8
  store ptr %0, ptr %2, align 8
  %3 = load ptr, ptr %2, align 8
  %4 = getelementptr inbounds nuw %"class.llvm::MachineInstr", ptr %3, i32 0, i32 3
  %5 = load ptr, ptr %4, align 8
  ret ptr %5
}

; Function Attrs: mustprogress nounwind uwtable
define linkonce_odr hidden noundef i32 @_ZNK4llvm10MCRegistercvjEv(ptr noundef nonnull align 4 dereferenceable(4) %0) #0 comdat align 2 {
  %2 = alloca ptr, align 8
  store ptr %0, ptr %2, align 8
  %3 = load ptr, ptr %2, align 8
  %4 = getelementptr inbounds nuw %"class.llvm::MCRegister", ptr %3, i32 0, i32 0
  %5 = load i32, ptr %4, align 4
  ret i32 %5
}

; Function Attrs: mustprogress nounwind uwtable
define linkonce_odr hidden void @_ZN4llvm10MCRegisterC2Ej(ptr noundef nonnull align 4 dereferenceable(4) %0, i32 noundef %1) unnamed_addr #0 comdat align 2 {
  %3 = alloca ptr, align 8
  %4 = alloca i32, align 4
  store ptr %0, ptr %3, align 8
  store i32 %1, ptr %4, align 4
  %5 = load ptr, ptr %3, align 8
  %6 = getelementptr inbounds nuw %"class.llvm::MCRegister", ptr %5, i32 0, i32 0
  %7 = load i32, ptr %4, align 4
  store i32 %7, ptr %6, align 4
  ret void
}

; Function Attrs: mustprogress nounwind uwtable
define linkonce_odr hidden noundef zeroext i1 @_ZN4llvm8Register18isPhysicalRegisterEj(i32 noundef %0) #0 comdat align 2 {
  %2 = alloca i32, align 4
  store i32 %0, ptr %2, align 4
  %3 = load i32, ptr %2, align 4
  %4 = call noundef zeroext i1 @_ZN4llvm10MCRegister18isPhysicalRegisterEj(i32 noundef %3)
  ret i1 %4
}

; Function Attrs: mustprogress nounwind uwtable
define linkonce_odr hidden noundef zeroext i1 @_ZNK4llvm8RegisterneERKS0_(ptr noundef nonnull align 4 dereferenceable(4) %0, ptr noundef nonnull align 4 dereferenceable(4) %1) #0 comdat align 2 {
  %3 = alloca ptr, align 8
  %4 = alloca ptr, align 8
  store ptr %0, ptr %3, align 8
  store ptr %1, ptr %4, align 8
  %5 = load ptr, ptr %3, align 8
  %6 = getelementptr inbounds nuw %"class.llvm::Register", ptr %5, i32 0, i32 0
  %7 = load i32, ptr %6, align 4
  %8 = load ptr, ptr %4, align 8
  %9 = getelementptr inbounds nuw %"class.llvm::Register", ptr %8, i32 0, i32 0
  %10 = load i32, ptr %9, align 4
  %11 = icmp ne i32 %7, %10
  ret i1 %11
}

; Function Attrs: mustprogress nounwind uwtable
define linkonce_odr hidden i32 @_ZNK4llvm14MachineOperand6getRegEv(ptr noundef nonnull align 8 dereferenceable(32) %0) #0 comdat align 2 {
  %2 = alloca %"class.llvm::Register", align 4
  %3 = alloca ptr, align 8
  store ptr %0, ptr %3, align 8
  %4 = load ptr, ptr %3, align 8
  %5 = getelementptr inbounds nuw %"class.llvm::MachineOperand", ptr %4, i32 0, i32 1
  %6 = load i32, ptr %5, align 4
  call void @_ZN4llvm8RegisterC2Ej(ptr noundef nonnull align 4 dereferenceable(4) %2, i32 noundef %6)
  %7 = getelementptr inbounds nuw %"class.llvm::Register", ptr %2, i32 0, i32 0
  %8 = load i32, ptr %7, align 4
  ret i32 %8
}

; Function Attrs: mustprogress nounwind uwtable
define linkonce_odr hidden noundef zeroext i1 @_ZNK4llvm14MachineOperand5isRegEv(ptr noundef nonnull align 8 dereferenceable(32) %0) #0 comdat align 2 {
  %2 = alloca ptr, align 8
  store ptr %0, ptr %2, align 8
  %3 = load ptr, ptr %2, align 8
  %4 = load i32, ptr %3, align 8
  %5 = and i32 %4, 255
  %6 = icmp eq i32 %5, 0
  ret i1 %6
}

; Function Attrs: mustprogress nounwind uwtable
define linkonce_odr hidden noundef ptr @_ZNK4llvm14iterator_rangeIPNS_14MachineOperandEE3endEv(ptr noundef nonnull align 8 dereferenceable(16) %0) #0 comdat align 2 {
  %2 = alloca ptr, align 8
  store ptr %0, ptr %2, align 8
  %3 = load ptr, ptr %2, align 8
  %4 = getelementptr inbounds nuw %"class.llvm::iterator_range.173", ptr %3, i32 0, i32 1
  %5 = load ptr, ptr %4, align 8
  ret ptr %5
}

; Function Attrs: mustprogress nounwind uwtable
define linkonce_odr hidden noundef ptr @_ZNK4llvm14iterator_rangeIPNS_14MachineOperandEE5beginEv(ptr noundef nonnull align 8 dereferenceable(16) %0) #0 comdat align 2 {
  %2 = alloca ptr, align 8
  store ptr %0, ptr %2, align 8
  %3 = load ptr, ptr %2, align 8
  %4 = getelementptr inbounds nuw %"class.llvm::iterator_range.173", ptr %3, i32 0, i32 0
  %5 = load ptr, ptr %4, align 8
  ret ptr %5
}

; Function Attrs: mustprogress nounwind uwtable
define linkonce_odr hidden { ptr, ptr } @_ZN4llvm12MachineInstr8operandsEv(ptr noundef nonnull align 8 dereferenceable(70) %0) #0 comdat align 2 {
  %2 = alloca %"class.llvm::iterator_range.173", align 8
  %3 = alloca ptr, align 8
  store ptr %0, ptr %3, align 8
  %4 = load ptr, ptr %3, align 8
  %5 = call noundef ptr @_ZN4llvm12MachineInstr14operands_beginEv(ptr noundef nonnull align 8 dereferenceable(70) %4)
  %6 = call noundef ptr @_ZN4llvm12MachineInstr12operands_endEv(ptr noundef nonnull align 8 dereferenceable(70) %4)
  %7 = call { ptr, ptr } @_ZN4llvm10make_rangeIPNS_14MachineOperandEEENS_14iterator_rangeIT_EES4_S4_(ptr noundef %5, ptr noundef %6)
  %8 = getelementptr inbounds nuw { ptr, ptr }, ptr %2, i32 0, i32 0
  %9 = extractvalue { ptr, ptr } %7, 0
  store ptr %9, ptr %8, align 8
  %10 = getelementptr inbounds nuw { ptr, ptr }, ptr %2, i32 0, i32 1
  %11 = extractvalue { ptr, ptr } %7, 1
  store ptr %11, ptr %10, align 8
  %12 = load { ptr, ptr }, ptr %2, align 8
  ret { ptr, ptr } %12
}

; Function Attrs: mustprogress nounwind uwtable
define linkonce_odr hidden void @_ZN4llvm8RegisterC2ENS_10MCRegisterE(ptr noundef nonnull align 4 dereferenceable(4) %0, i32 %1) unnamed_addr #0 comdat align 2 {
  %3 = alloca %"class.llvm::MCRegister", align 4
  %4 = alloca ptr, align 8
  %5 = getelementptr inbounds nuw %"class.llvm::MCRegister", ptr %3, i32 0, i32 0
  store i32 %1, ptr %5, align 4
  store ptr %0, ptr %4, align 8
  %6 = load ptr, ptr %4, align 8
  %7 = getelementptr inbounds nuw %"class.llvm::Register", ptr %6, i32 0, i32 0
  %8 = call noundef i32 @_ZNK4llvm10MCRegistercvjEv(ptr noundef nonnull align 4 dereferenceable(4) %3)
  store i32 %8, ptr %7, align 4
  ret void
}

; Function Attrs: mustprogress nounwind uwtable
define linkonce_odr hidden i32 @_ZNK4llvm18TargetRegisterInfo9getSubRegENS_10MCRegisterEj(ptr noundef nonnull align 8 dereferenceable(308) %0, i32 %1, i32 noundef %2) #0 comdat align 2 {
  %4 = alloca %"class.llvm::MCRegister", align 4
  %5 = alloca %"class.llvm::MCRegister", align 4
  %6 = alloca ptr, align 8
  %7 = alloca i32, align 4
  %8 = alloca %"class.llvm::MCRegister", align 4
  %9 = getelementptr inbounds nuw %"class.llvm::MCRegister", ptr %5, i32 0, i32 0
  store i32 %1, ptr %9, align 4
  store ptr %0, ptr %6, align 8
  store i32 %2, ptr %7, align 4
  %10 = load ptr, ptr %6, align 8
  %11 = getelementptr inbounds i8, ptr %10, i64 8
  call void @llvm.memcpy.p0.p0.i64(ptr align 4 %8, ptr align 4 %5, i64 4, i1 false)
  %12 = load i32, ptr %7, align 4
  %13 = getelementptr inbounds nuw %"class.llvm::MCRegister", ptr %8, i32 0, i32 0
  %14 = load i32, ptr %13, align 4
  %15 = call i32 @_ZNK4llvm14MCRegisterInfo9getSubRegENS_10MCRegisterEj(ptr noundef nonnull align 8 dereferenceable(224) %11, i32 %14, i32 noundef %12)
  %16 = getelementptr inbounds nuw %"class.llvm::MCRegister", ptr %4, i32 0, i32 0
  store i32 %15, ptr %16, align 4
  %17 = getelementptr inbounds nuw %"class.llvm::MCRegister", ptr %4, i32 0, i32 0
  %18 = load i32, ptr %17, align 4
  ret i32 %18
}

; Function Attrs: mustprogress nounwind uwtable
define linkonce_odr hidden i32 @_ZNK4llvm8RegistercvNS_10MCRegisterEEv(ptr noundef nonnull align 4 dereferenceable(4) %0) #0 comdat align 2 {
  %2 = alloca %"class.llvm::MCRegister", align 4
  %3 = alloca ptr, align 8
  store ptr %0, ptr %3, align 8
  %4 = load ptr, ptr %3, align 8
  %5 = getelementptr inbounds nuw %"class.llvm::Register", ptr %4, i32 0, i32 0
  %6 = load i32, ptr %5, align 4
  call void @_ZN4llvm10MCRegisterC2Ej(ptr noundef nonnull align 4 dereferenceable(4) %2, i32 noundef %6)
  %7 = getelementptr inbounds nuw %"class.llvm::MCRegister", ptr %2, i32 0, i32 0
  %8 = load i32, ptr %7, align 4
  ret i32 %8
}

; Function Attrs: mustprogress nounwind uwtable
define linkonce_odr hidden noundef zeroext i1 @_ZNK4llvm8Register10isPhysicalEv(ptr noundef nonnull align 4 dereferenceable(4) %0) #0 comdat align 2 {
  %2 = alloca ptr, align 8
  store ptr %0, ptr %2, align 8
  %3 = load ptr, ptr %2, align 8
  %4 = getelementptr inbounds nuw %"class.llvm::Register", ptr %3, i32 0, i32 0
  %5 = load i32, ptr %4, align 4
  %6 = call noundef zeroext i1 @_ZN4llvm8Register18isPhysicalRegisterEj(i32 noundef %5)
  ret i1 %6
}

; Function Attrs: mustprogress nounwind uwtable
define dso_local void @_ZN4llvm12MachineInstr18substituteRegisterENS_8RegisterES1_jRKNS_18TargetRegisterInfoE(ptr noundef nonnull align 8 dereferenceable(70) %0, i32 %1, i32 %2, i32 noundef %3, ptr noundef nonnull align 8 dereferenceable(308) %4) #0 align 2 {
  %6 = alloca %"class.llvm::Register", align 4
  %7 = alloca %"class.llvm::Register", align 4
  %8 = alloca ptr, align 8
  %9 = alloca i32, align 4
  %10 = alloca ptr, align 8
  %11 = alloca %"class.llvm::Register", align 4
  %12 = alloca %"class.llvm::MCRegister", align 4
  %13 = alloca %"class.llvm::MCRegister", align 4
  %14 = alloca ptr, align 8
  %15 = alloca %"class.llvm::iterator_range.173", align 8
  %16 = alloca ptr, align 8
  %17 = alloca ptr, align 8
  %18 = alloca ptr, align 8
  %19 = alloca %"class.llvm::Register", align 4
  %20 = alloca %"class.llvm::MCRegister", align 4
  %21 = alloca ptr, align 8
  %22 = alloca %"class.llvm::iterator_range.173", align 8
  %23 = alloca ptr, align 8
  %24 = alloca ptr, align 8
  %25 = alloca ptr, align 8
  %26 = alloca %"class.llvm::Register", align 4
  %27 = alloca %"class.llvm::Register", align 4
  %28 = getelementptr inbounds nuw %"class.llvm::Register", ptr %6, i32 0, i32 0
  store i32 %1, ptr %28, align 4
  %29 = getelementptr inbounds nuw %"class.llvm::Register", ptr %7, i32 0, i32 0
  store i32 %2, ptr %29, align 4
  store ptr %0, ptr %8, align 8
  store i32 %3, ptr %9, align 4
  store ptr %4, ptr %10, align 8
  %30 = load ptr, ptr %8, align 8
  %31 = call noundef zeroext i1 @_ZNK4llvm8Register10isPhysicalEv(ptr noundef nonnull align 4 dereferenceable(4) %7)
  br i1 %31, label %32, label %83

32:                                               ; preds = %5
  %33 = load i32, ptr %9, align 4
  %34 = icmp ne i32 %33, 0
  br i1 %34, label %35, label %46

35:                                               ; preds = %32
  %36 = load ptr, ptr %10, align 8
  %37 = call i32 @_ZNK4llvm8RegistercvNS_10MCRegisterEEv(ptr noundef nonnull align 4 dereferenceable(4) %7)
  %38 = getelementptr inbounds nuw %"class.llvm::MCRegister", ptr %13, i32 0, i32 0
  store i32 %37, ptr %38, align 4
  %39 = load i32, ptr %9, align 4
  %40 = getelementptr inbounds nuw %"class.llvm::MCRegister", ptr %13, i32 0, i32 0
  %41 = load i32, ptr %40, align 4
  %42 = call i32 @_ZNK4llvm18TargetRegisterInfo9getSubRegENS_10MCRegisterEj(ptr noundef nonnull align 8 dereferenceable(308) %36, i32 %41, i32 noundef %39)
  %43 = getelementptr inbounds nuw %"class.llvm::MCRegister", ptr %12, i32 0, i32 0
  store i32 %42, ptr %43, align 4
  %44 = getelementptr inbounds nuw %"class.llvm::MCRegister", ptr %12, i32 0, i32 0
  %45 = load i32, ptr %44, align 4
  call void @_ZN4llvm8RegisterC2ENS_10MCRegisterE(ptr noundef nonnull align 4 dereferenceable(4) %11, i32 %45)
  call void @llvm.memcpy.p0.p0.i64(ptr align 4 %7, ptr align 4 %11, i64 4, i1 false)
  br label %46

46:                                               ; preds = %35, %32
  %47 = call { ptr, ptr } @_ZN4llvm12MachineInstr8operandsEv(ptr noundef nonnull align 8 dereferenceable(70) %30)
  %48 = getelementptr inbounds nuw { ptr, ptr }, ptr %15, i32 0, i32 0
  %49 = extractvalue { ptr, ptr } %47, 0
  store ptr %49, ptr %48, align 8
  %50 = getelementptr inbounds nuw { ptr, ptr }, ptr %15, i32 0, i32 1
  %51 = extractvalue { ptr, ptr } %47, 1
  store ptr %51, ptr %50, align 8
  store ptr %15, ptr %14, align 8
  %52 = load ptr, ptr %14, align 8
  %53 = call noundef ptr @_ZNK4llvm14iterator_rangeIPNS_14MachineOperandEE5beginEv(ptr noundef nonnull align 8 dereferenceable(16) %52)
  store ptr %53, ptr %16, align 8
  %54 = load ptr, ptr %14, align 8
  %55 = call noundef ptr @_ZNK4llvm14iterator_rangeIPNS_14MachineOperandEE3endEv(ptr noundef nonnull align 8 dereferenceable(16) %54)
  store ptr %55, ptr %17, align 8
  br label %56

56:                                               ; preds = %79, %46
  %57 = load ptr, ptr %16, align 8
  %58 = load ptr, ptr %17, align 8
  %59 = icmp ne ptr %57, %58
  br i1 %59, label %60, label %82

60:                                               ; preds = %56
  %61 = load ptr, ptr %16, align 8
  store ptr %61, ptr %18, align 8
  %62 = load ptr, ptr %18, align 8
  %63 = call noundef zeroext i1 @_ZNK4llvm14MachineOperand5isRegEv(ptr noundef nonnull align 8 dereferenceable(32) %62)
  br i1 %63, label %64, label %69

64:                                               ; preds = %60
  %65 = load ptr, ptr %18, align 8
  %66 = call i32 @_ZNK4llvm14MachineOperand6getRegEv(ptr noundef nonnull align 8 dereferenceable(32) %65)
  %67 = getelementptr inbounds nuw %"class.llvm::Register", ptr %19, i32 0, i32 0
  store i32 %66, ptr %67, align 4
  %68 = call noundef zeroext i1 @_ZNK4llvm8RegisterneERKS0_(ptr noundef nonnull align 4 dereferenceable(4) %19, ptr noundef nonnull align 4 dereferenceable(4) %6)
  br label %69

69:                                               ; preds = %64, %60
  %70 = phi i1 [ true, %60 ], [ %68, %64 ]
  br i1 %70, label %71, label %72

71:                                               ; preds = %69
  br label %79

72:                                               ; preds = %69
  %73 = load ptr, ptr %18, align 8
  %74 = call i32 @_ZNK4llvm8RegistercvNS_10MCRegisterEEv(ptr noundef nonnull align 4 dereferenceable(4) %7)
  %75 = getelementptr inbounds nuw %"class.llvm::MCRegister", ptr %20, i32 0, i32 0
  store i32 %74, ptr %75, align 4
  %76 = load ptr, ptr %10, align 8
  %77 = getelementptr inbounds nuw %"class.llvm::MCRegister", ptr %20, i32 0, i32 0
  %78 = load i32, ptr %77, align 4
  call void @_ZN4llvm14MachineOperand12substPhysRegENS_10MCRegisterERKNS_18TargetRegisterInfoE(ptr noundef nonnull align 8 dereferenceable(32) %73, i32 %78, ptr noundef nonnull align 8 dereferenceable(308) %76)
  br label %79

79:                                               ; preds = %72, %71
  %80 = load ptr, ptr %16, align 8
  %81 = getelementptr inbounds %"class.llvm::MachineOperand", ptr %80, i32 1
  store ptr %81, ptr %16, align 8
  br label %56

82:                                               ; preds = %56
  br label %119

83:                                               ; preds = %5
  %84 = call { ptr, ptr } @_ZN4llvm12MachineInstr8operandsEv(ptr noundef nonnull align 8 dereferenceable(70) %30)
  %85 = getelementptr inbounds nuw { ptr, ptr }, ptr %22, i32 0, i32 0
  %86 = extractvalue { ptr, ptr } %84, 0
  store ptr %86, ptr %85, align 8
  %87 = getelementptr inbounds nuw { ptr, ptr }, ptr %22, i32 0, i32 1
  %88 = extractvalue { ptr, ptr } %84, 1
  store ptr %88, ptr %87, align 8
  store ptr %22, ptr %21, align 8
  %89 = load ptr, ptr %21, align 8
  %90 = call noundef ptr @_ZNK4llvm14iterator_rangeIPNS_14MachineOperandEE5beginEv(ptr noundef nonnull align 8 dereferenceable(16) %89)
  store ptr %90, ptr %23, align 8
  %91 = load ptr, ptr %21, align 8
  %92 = call noundef ptr @_ZNK4llvm14iterator_rangeIPNS_14MachineOperandEE3endEv(ptr noundef nonnull align 8 dereferenceable(16) %91)
  store ptr %92, ptr %24, align 8
  br label %93

93:                                               ; preds = %115, %83
  %94 = load ptr, ptr %23, align 8
  %95 = load ptr, ptr %24, align 8
  %96 = icmp ne ptr %94, %95
  br i1 %96, label %97, label %118

97:                                               ; preds = %93
  %98 = load ptr, ptr %23, align 8
  store ptr %98, ptr %25, align 8
  %99 = load ptr, ptr %25, align 8
  %100 = call noundef zeroext i1 @_ZNK4llvm14MachineOperand5isRegEv(ptr noundef nonnull align 8 dereferenceable(32) %99)
  br i1 %100, label %101, label %106

101:                                              ; preds = %97
  %102 = load ptr, ptr %25, align 8
  %103 = call i32 @_ZNK4llvm14MachineOperand6getRegEv(ptr noundef nonnull align 8 dereferenceable(32) %102)
  %104 = getelementptr inbounds nuw %"class.llvm::Register", ptr %26, i32 0, i32 0
  store i32 %103, ptr %104, align 4
  %105 = call noundef zeroext i1 @_ZNK4llvm8RegisterneERKS0_(ptr noundef nonnull align 4 dereferenceable(4) %26, ptr noundef nonnull align 4 dereferenceable(4) %6)
  br label %106

106:                                              ; preds = %101, %97
  %107 = phi i1 [ true, %97 ], [ %105, %101 ]
  br i1 %107, label %108, label %109

108:                                              ; preds = %106
  br label %115

109:                                              ; preds = %106
  %110 = load ptr, ptr %25, align 8
  call void @llvm.memcpy.p0.p0.i64(ptr align 4 %27, ptr align 4 %7, i64 4, i1 false)
  %111 = load i32, ptr %9, align 4
  %112 = load ptr, ptr %10, align 8
  %113 = getelementptr inbounds nuw %"class.llvm::Register", ptr %27, i32 0, i32 0
  %114 = load i32, ptr %113, align 4
  call void @_ZN4llvm14MachineOperand12substVirtRegENS_8RegisterEjRKNS_18TargetRegisterInfoE(ptr noundef nonnull align 8 dereferenceable(32) %110, i32 %114, i32 noundef %111, ptr noundef nonnull align 8 dereferenceable(308) %112)
  br label %115

115:                                              ; preds = %109, %108
  %116 = load ptr, ptr %23, align 8
  %117 = getelementptr inbounds %"class.llvm::MachineOperand", ptr %116, i32 1
  store ptr %117, ptr %23, align 8
  br label %93

118:                                              ; preds = %93
  br label %119

119:                                              ; preds = %118, %82
  ret void
}