; Function Attrs: mustprogress nounwind uwtable
define dso_local void @_ZN4llvm12MachineInstr18substituteRegisterENS_8RegisterES1_jRKNS_18TargetRegisterInfoE(ptr nocapture noundef nonnull readonly align 8 dereferenceable(70) %0, i32 %1, i32 %2, i32 noundef %3, ptr noundef nonnull align 8 dereferenceable(308) %4) local_unnamed_addr #0 align 2 {
  %6 = add i32 %2, -1
  %7 = icmp ult i32 %6, 1073741823
  br i1 %7, label %8, label %27

8:                                                ; preds = %5
  %.not31 = icmp eq i32 %3, 0
  br i1 %.not31, label %12, label %9

9:                                                ; preds = %8
  %10 = getelementptr inbounds i8, ptr %4, i64 8
  %11 = tail call i32 @_ZNK4llvm14MCRegisterInfo9getSubRegENS_10MCRegisterEj(ptr noundef nonnull align 8 dereferenceable(224) %10, i32 %2, i32 noundef %3) #22
  br label %12

12:                                               ; preds = %9, %8
  %.sroa.040.0 = phi i32 [ %2, %8 ], [ %11, %9 ]
  %13 = getelementptr inbounds nuw i8, ptr %0, i64 32
  %14 = load ptr, ptr %13, align 8
  %15 = getelementptr inbounds nuw i8, ptr %0, i64 40
  %16 = load i24, ptr %15, align 8
  %17 = zext i24 %16 to i64
  %18 = getelementptr inbounds %"class.llvm::MachineOperand", ptr %14, i64 %17
  %.not3251 = icmp eq i24 %16, 0
  br i1 %.not3251, label %.loopexit, label %.lr.ph53

.lr.ph53:                                         ; preds = %12, %.critedge
  %.052 = phi ptr [ %26, %.critedge ], [ %14, %12 ]
  %19 = load i32, ptr %.052, align 8
  %20 = and i32 %19, 255
  %21 = icmp eq i32 %20, 0
  br i1 %21, label %22, label %.critedge

22:                                               ; preds = %.lr.ph53
  %23 = getelementptr inbounds nuw i8, ptr %.052, i64 4
  %24 = load i32, ptr %23, align 4
  %.not47 = icmp eq i32 %24, %1
  br i1 %.not47, label %25, label %.critedge

25:                                               ; preds = %22
  tail call void @_ZN4llvm14MachineOperand12substPhysRegENS_10MCRegisterERKNS_18TargetRegisterInfoE(ptr noundef nonnull align 8 dereferenceable(32) %.052, i32 %.sroa.040.0, ptr noundef nonnull align 8 dereferenceable(308) %4) #22
  br label %.critedge

.critedge:                                        ; preds = %.lr.ph53, %22, %25
  %26 = getelementptr inbounds i8, ptr %.052, i64 32
  %.not32 = icmp eq ptr %26, %18
  br i1 %.not32, label %.loopexit, label %.lr.ph53

27:                                               ; preds = %5
  %28 = getelementptr inbounds nuw i8, ptr %0, i64 32
  %29 = load ptr, ptr %28, align 8
  %30 = getelementptr inbounds nuw i8, ptr %0, i64 40
  %31 = load i24, ptr %30, align 8
  %32 = zext i24 %31 to i64
  %33 = getelementptr inbounds %"class.llvm::MachineOperand", ptr %29, i64 %32
  %.not49 = icmp eq i24 %31, 0
  br i1 %.not49, label %.loopexit, label %.lr.ph

.lr.ph:                                           ; preds = %27, %.critedge2
  %.02950 = phi ptr [ %41, %.critedge2 ], [ %29, %27 ]
  %34 = load i32, ptr %.02950, align 8
  %35 = and i32 %34, 255
  %36 = icmp eq i32 %35, 0
  br i1 %36, label %37, label %.critedge2

37:                                               ; preds = %.lr.ph
  %38 = getelementptr inbounds nuw i8, ptr %.02950, i64 4
  %39 = load i32, ptr %38, align 4
  %.not46 = icmp eq i32 %39, %1
  br i1 %.not46, label %40, label %.critedge2

40:                                               ; preds = %37
  tail call void @_ZN4llvm14MachineOperand12substVirtRegENS_8RegisterEjRKNS_18TargetRegisterInfoE(ptr noundef nonnull align 8 dereferenceable(32) %.02950, i32 %2, i32 noundef %3, ptr noundef nonnull align 8 dereferenceable(308) %4) #22
  br label %.critedge2

.critedge2:                                       ; preds = %.lr.ph, %37, %40
  %41 = getelementptr inbounds i8, ptr %.02950, i64 32
  %.not = icmp eq ptr %41, %33
  br i1 %.not, label %.loopexit, label %.lr.ph

.loopexit:                                        ; preds = %.critedge2, %.critedge, %27, %12
  ret void
}